; ModuleID = 'source-C-CXX/7/538.c'
source_filename = "source-C-CXX/7/538.c"
target datalayout = "e-m:e-p270:32:32-p271:32:32-p272:64:64-i64:64-f80:128-n8:16:32:64-S128"
target triple = "x86_64-pc-linux-gnu"

@.str = private unnamed_addr constant [5 x i8] c"%d%d\00", align 1
@.str.1 = private unnamed_addr constant [3 x i8] c"%d\00", align 1
@.str.2 = private unnamed_addr constant [4 x i8] c"%d \00", align 1

; Function Attrs: nofree nounwind sspstrong uwtable
define dso_local i32 @main() local_unnamed_addr #0 {
  %1 = alloca i32, align 4
  %2 = alloca i32, align 4
  %3 = alloca [100 x i32], align 16
  %4 = alloca [100 x i32], align 16
  %5 = bitcast i32* %1 to i8*
  call void @llvm.lifetime.start.p0i8(i64 4, i8* nonnull %5) #4
  %6 = bitcast i32* %2 to i8*
  call void @llvm.lifetime.start.p0i8(i64 4, i8* nonnull %6) #4
  %7 = bitcast [100 x i32]* %3 to i8*
  call void @llvm.lifetime.start.p0i8(i64 400, i8* nonnull %7) #4
  %8 = bitcast [100 x i32]* %4 to i8*
  call void @llvm.lifetime.start.p0i8(i64 400, i8* nonnull %8) #4
  %9 = call i32 (i8*, ...) @__isoc99_scanf(i8* getelementptr inbounds ([5 x i8], [5 x i8]* @.str, i64 0, i64 0), i32* nonnull %1, i32* nonnull %2)
  %10 = load i32, i32* %1, align 4, !tbaa !5
  %11 = icmp sgt i32 %10, 0
  br i1 %11, label %12, label %67

12:                                               ; preds = %0, %12
  %13 = phi i64 [ %16, %12 ], [ 0, %0 ]
  %14 = getelementptr inbounds [100 x i32], [100 x i32]* %3, i64 0, i64 %13
  %15 = call i32 (i8*, ...) @__isoc99_scanf(i8* getelementptr inbounds ([3 x i8], [3 x i8]* @.str.1, i64 0, i64 0), i32* nonnull %14)
  %16 = add nuw nsw i64 %13, 1
  %17 = load i32, i32* %1, align 4, !tbaa !5
  %18 = sext i32 %17 to i64
  %19 = icmp slt i64 %16, %18
  br i1 %19, label %12, label %20, !llvm.loop !9

20:                                               ; preds = %12
  %21 = getelementptr inbounds [100 x i32], [100 x i32]* %3, i64 0, i64 0
  %22 = icmp sgt i32 %17, 1
  br i1 %22, label %23, label %67

23:                                               ; preds = %20, %63
  %24 = phi i32 [ %66, %63 ], [ 0, %20 ]
  %25 = phi i32 [ %64, %63 ], [ 1, %20 ]
  %26 = xor i32 %24, -1
  %27 = add i32 %17, %26
  %28 = zext i32 %27 to i64
  %29 = icmp slt i32 %25, %17
  br i1 %29, label %30, label %63

30:                                               ; preds = %23
  %31 = load i32, i32* %21, align 16, !tbaa !5
  %32 = and i64 %28, 1
  %33 = icmp eq i32 %27, 1
  br i1 %33, label %52, label %34

34:                                               ; preds = %30
  %35 = and i64 %28, 4294967294
  br label %36

36:                                               ; preds = %162, %34
  %37 = phi i32 [ %31, %34 ], [ %163, %162 ]
  %38 = phi i64 [ 0, %34 ], [ %48, %162 ]
  %39 = phi i64 [ %35, %34 ], [ %164, %162 ]
  %40 = or i64 %38, 1
  %41 = getelementptr inbounds [100 x i32], [100 x i32]* %3, i64 0, i64 %40
  %42 = load i32, i32* %41, align 4, !tbaa !5
  %43 = icmp sgt i32 %37, %42
  br i1 %43, label %44, label %46

44:                                               ; preds = %36
  %45 = getelementptr inbounds [100 x i32], [100 x i32]* %3, i64 0, i64 %38
  store i32 %37, i32* %41, align 4, !tbaa !5
  store i32 %42, i32* %45, align 8, !tbaa !5
  br label %46

46:                                               ; preds = %44, %36
  %47 = phi i32 [ %42, %36 ], [ %37, %44 ]
  %48 = add nuw nsw i64 %38, 2
  %49 = getelementptr inbounds [100 x i32], [100 x i32]* %3, i64 0, i64 %48
  %50 = load i32, i32* %49, align 8, !tbaa !5
  %51 = icmp sgt i32 %47, %50
  br i1 %51, label %160, label %162

52:                                               ; preds = %162, %30
  %53 = phi i32 [ %31, %30 ], [ %163, %162 ]
  %54 = phi i64 [ 0, %30 ], [ %48, %162 ]
  %55 = icmp eq i64 %32, 0
  br i1 %55, label %63, label %56

56:                                               ; preds = %52
  %57 = add nuw nsw i64 %54, 1
  %58 = getelementptr inbounds [100 x i32], [100 x i32]* %3, i64 0, i64 %57
  %59 = load i32, i32* %58, align 4, !tbaa !5
  %60 = icmp sgt i32 %53, %59
  br i1 %60, label %61, label %63

61:                                               ; preds = %56
  %62 = getelementptr inbounds [100 x i32], [100 x i32]* %3, i64 0, i64 %54
  store i32 %53, i32* %58, align 4, !tbaa !5
  store i32 %59, i32* %62, align 4, !tbaa !5
  br label %63

63:                                               ; preds = %52, %56, %61, %23
  %64 = add nuw nsw i32 %25, 1
  %65 = icmp eq i32 %64, %17
  %66 = add i32 %24, 1
  br i1 %65, label %67, label %23, !llvm.loop !11

67:                                               ; preds = %63, %0, %20
  %68 = load i32, i32* %2, align 4, !tbaa !5
  %69 = icmp sgt i32 %68, 0
  br i1 %69, label %70, label %125

70:                                               ; preds = %67, %70
  %71 = phi i64 [ %74, %70 ], [ 0, %67 ]
  %72 = getelementptr inbounds [100 x i32], [100 x i32]* %4, i64 0, i64 %71
  %73 = call i32 (i8*, ...) @__isoc99_scanf(i8* getelementptr inbounds ([3 x i8], [3 x i8]* @.str.1, i64 0, i64 0), i32* nonnull %72)
  %74 = add nuw nsw i64 %71, 1
  %75 = load i32, i32* %2, align 4, !tbaa !5
  %76 = sext i32 %75 to i64
  %77 = icmp slt i64 %74, %76
  br i1 %77, label %70, label %78, !llvm.loop !12

78:                                               ; preds = %70
  %79 = getelementptr inbounds [100 x i32], [100 x i32]* %4, i64 0, i64 0
  %80 = icmp sgt i32 %75, 1
  br i1 %80, label %81, label %125

81:                                               ; preds = %78, %121
  %82 = phi i32 [ %124, %121 ], [ 0, %78 ]
  %83 = phi i32 [ %122, %121 ], [ 1, %78 ]
  %84 = xor i32 %82, -1
  %85 = add i32 %75, %84
  %86 = zext i32 %85 to i64
  %87 = icmp slt i32 %83, %75
  br i1 %87, label %88, label %121

88:                                               ; preds = %81
  %89 = load i32, i32* %79, align 16, !tbaa !5
  %90 = and i64 %86, 1
  %91 = icmp eq i32 %85, 1
  br i1 %91, label %110, label %92

92:                                               ; preds = %88
  %93 = and i64 %86, 4294967294
  br label %94

94:                                               ; preds = %168, %92
  %95 = phi i32 [ %89, %92 ], [ %169, %168 ]
  %96 = phi i64 [ 0, %92 ], [ %106, %168 ]
  %97 = phi i64 [ %93, %92 ], [ %170, %168 ]
  %98 = or i64 %96, 1
  %99 = getelementptr inbounds [100 x i32], [100 x i32]* %4, i64 0, i64 %98
  %100 = load i32, i32* %99, align 4, !tbaa !5
  %101 = icmp sgt i32 %95, %100
  br i1 %101, label %102, label %104

102:                                              ; preds = %94
  %103 = getelementptr inbounds [100 x i32], [100 x i32]* %4, i64 0, i64 %96
  store i32 %95, i32* %99, align 4, !tbaa !5
  store i32 %100, i32* %103, align 8, !tbaa !5
  br label %104

104:                                              ; preds = %102, %94
  %105 = phi i32 [ %100, %94 ], [ %95, %102 ]
  %106 = add nuw nsw i64 %96, 2
  %107 = getelementptr inbounds [100 x i32], [100 x i32]* %4, i64 0, i64 %106
  %108 = load i32, i32* %107, align 8, !tbaa !5
  %109 = icmp sgt i32 %105, %108
  br i1 %109, label %166, label %168

110:                                              ; preds = %168, %88
  %111 = phi i32 [ %89, %88 ], [ %169, %168 ]
  %112 = phi i64 [ 0, %88 ], [ %106, %168 ]
  %113 = icmp eq i64 %90, 0
  br i1 %113, label %121, label %114

114:                                              ; preds = %110
  %115 = add nuw nsw i64 %112, 1
  %116 = getelementptr inbounds [100 x i32], [100 x i32]* %4, i64 0, i64 %115
  %117 = load i32, i32* %116, align 4, !tbaa !5
  %118 = icmp sgt i32 %111, %117
  br i1 %118, label %119, label %121

119:                                              ; preds = %114
  %120 = getelementptr inbounds [100 x i32], [100 x i32]* %4, i64 0, i64 %112
  store i32 %111, i32* %116, align 4, !tbaa !5
  store i32 %117, i32* %120, align 4, !tbaa !5
  br label %121

121:                                              ; preds = %110, %114, %119, %81
  %122 = add nuw nsw i32 %83, 1
  %123 = icmp eq i32 %122, %75
  %124 = add i32 %82, 1
  br i1 %123, label %125, label %81, !llvm.loop !11

125:                                              ; preds = %121, %67, %78
  %126 = phi i32 [ %75, %78 ], [ %68, %67 ], [ %75, %121 ]
  %127 = load i32, i32* %1, align 4, !tbaa !5
  %128 = icmp sgt i32 %127, 0
  br i1 %128, label %134, label %131

129:                                              ; preds = %134
  %130 = load i32, i32* %2, align 4, !tbaa !5
  br label %131

131:                                              ; preds = %129, %125
  %132 = phi i32 [ %130, %129 ], [ %126, %125 ]
  %133 = icmp sgt i32 %132, 1
  br i1 %133, label %143, label %153

134:                                              ; preds = %125, %134
  %135 = phi i64 [ %139, %134 ], [ 0, %125 ]
  %136 = getelementptr inbounds [100 x i32], [100 x i32]* %3, i64 0, i64 %135
  %137 = load i32, i32* %136, align 4, !tbaa !5
  %138 = call i32 (i8*, ...) @printf(i8* nonnull dereferenceable(1) getelementptr inbounds ([4 x i8], [4 x i8]* @.str.2, i64 0, i64 0), i32 %137)
  %139 = add nuw nsw i64 %135, 1
  %140 = load i32, i32* %1, align 4, !tbaa !5
  %141 = sext i32 %140 to i64
  %142 = icmp slt i64 %139, %141
  br i1 %142, label %134, label %129, !llvm.loop !13

143:                                              ; preds = %131, %143
  %144 = phi i64 [ %148, %143 ], [ 0, %131 ]
  %145 = getelementptr inbounds [100 x i32], [100 x i32]* %4, i64 0, i64 %144
  %146 = load i32, i32* %145, align 4, !tbaa !5
  %147 = call i32 (i8*, ...) @printf(i8* nonnull dereferenceable(1) getelementptr inbounds ([4 x i8], [4 x i8]* @.str.2, i64 0, i64 0), i32 %146)
  %148 = add nuw nsw i64 %144, 1
  %149 = load i32, i32* %2, align 4, !tbaa !5
  %150 = add nsw i32 %149, -1
  %151 = sext i32 %150 to i64
  %152 = icmp slt i64 %148, %151
  br i1 %152, label %143, label %153, !llvm.loop !14

153:                                              ; preds = %143, %131
  %154 = phi i32 [ %132, %131 ], [ %149, %143 ]
  %155 = sext i32 %154 to i64
  %156 = add nsw i64 %155, -1
  %157 = getelementptr inbounds [100 x i32], [100 x i32]* %4, i64 0, i64 %156
  %158 = load i32, i32* %157, align 4, !tbaa !5
  %159 = call i32 (i8*, ...) @printf(i8* nonnull dereferenceable(1) getelementptr inbounds ([3 x i8], [3 x i8]* @.str.1, i64 0, i64 0), i32 %158)
  call void @llvm.lifetime.end.p0i8(i64 400, i8* nonnull %8) #4
  call void @llvm.lifetime.end.p0i8(i64 400, i8* nonnull %7) #4
  call void @llvm.lifetime.end.p0i8(i64 4, i8* nonnull %6) #4
  call void @llvm.lifetime.end.p0i8(i64 4, i8* nonnull %5) #4
  ret i32 0

160:                                              ; preds = %46
  %161 = getelementptr inbounds [100 x i32], [100 x i32]* %3, i64 0, i64 %40
  store i32 %47, i32* %49, align 8, !tbaa !5
  store i32 %50, i32* %161, align 4, !tbaa !5
  br label %162

162:                                              ; preds = %160, %46
  %163 = phi i32 [ %50, %46 ], [ %47, %160 ]
  %164 = add i64 %39, -2
  %165 = icmp eq i64 %164, 0
  br i1 %165, label %52, label %36, !llvm.loop !15

166:                                              ; preds = %104
  %167 = getelementptr inbounds [100 x i32], [100 x i32]* %4, i64 0, i64 %98
  store i32 %105, i32* %107, align 8, !tbaa !5
  store i32 %108, i32* %167, align 4, !tbaa !5
  br label %168

168:                                              ; preds = %166, %104
  %169 = phi i32 [ %108, %104 ], [ %105, %166 ]
  %170 = add i64 %97, -2
  %171 = icmp eq i64 %170, 0
  br i1 %171, label %110, label %94, !llvm.loop !15
}

; Function Attrs: argmemonly mustprogress nofree nosync nounwind willreturn
declare void @llvm.lifetime.start.p0i8(i64 immarg, i8* nocapture) #1

; Function Attrs: nofree nounwind
declare noundef i32 @__isoc99_scanf(i8* nocapture noundef readonly, ...) local_unnamed_addr #2

; Function Attrs: nofree norecurse nosync nounwind sspstrong uwtable
define dso_local i32* @change(i32* returned %0, i32 %1) local_unnamed_addr #3 {
  %3 = icmp sgt i32 %1, 1
  br i1 %3, label %4, label %48

4:                                                ; preds = %2, %44
  %5 = phi i32 [ %47, %44 ], [ 0, %2 ]
  %6 = phi i32 [ %45, %44 ], [ 1, %2 ]
  %7 = xor i32 %5, -1
  %8 = add i32 %7, %1
  %9 = zext i32 %8 to i64
  %10 = icmp slt i32 %6, %1
  br i1 %10, label %11, label %44

11:                                               ; preds = %4
  %12 = load i32, i32* %0, align 4, !tbaa !5
  %13 = and i64 %9, 1
  %14 = icmp eq i32 %8, 1
  br i1 %14, label %33, label %15

15:                                               ; preds = %11
  %16 = and i64 %9, 4294967294
  br label %17

17:                                               ; preds = %51, %15
  %18 = phi i32 [ %12, %15 ], [ %52, %51 ]
  %19 = phi i64 [ 0, %15 ], [ %29, %51 ]
  %20 = phi i64 [ %16, %15 ], [ %53, %51 ]
  %21 = or i64 %19, 1
  %22 = getelementptr inbounds i32, i32* %0, i64 %21
  %23 = load i32, i32* %22, align 4, !tbaa !5
  %24 = icmp sgt i32 %18, %23
  br i1 %24, label %25, label %27

25:                                               ; preds = %17
  %26 = getelementptr inbounds i32, i32* %0, i64 %19
  store i32 %18, i32* %22, align 4, !tbaa !5
  store i32 %23, i32* %26, align 4, !tbaa !5
  br label %27

27:                                               ; preds = %17, %25
  %28 = phi i32 [ %23, %17 ], [ %18, %25 ]
  %29 = add nuw nsw i64 %19, 2
  %30 = getelementptr inbounds i32, i32* %0, i64 %29
  %31 = load i32, i32* %30, align 4, !tbaa !5
  %32 = icmp sgt i32 %28, %31
  br i1 %32, label %49, label %51

33:                                               ; preds = %51, %11
  %34 = phi i32 [ %12, %11 ], [ %52, %51 ]
  %35 = phi i64 [ 0, %11 ], [ %29, %51 ]
  %36 = icmp eq i64 %13, 0
  br i1 %36, label %44, label %37

37:                                               ; preds = %33
  %38 = add nuw nsw i64 %35, 1
  %39 = getelementptr inbounds i32, i32* %0, i64 %38
  %40 = load i32, i32* %39, align 4, !tbaa !5
  %41 = icmp sgt i32 %34, %40
  br i1 %41, label %42, label %44

42:                                               ; preds = %37
  %43 = getelementptr inbounds i32, i32* %0, i64 %35
  store i32 %34, i32* %39, align 4, !tbaa !5
  store i32 %40, i32* %43, align 4, !tbaa !5
  br label %44

44:                                               ; preds = %33, %37, %42, %4
  %45 = add nuw nsw i32 %6, 1
  %46 = icmp eq i32 %45, %1
  %47 = add i32 %5, 1
  br i1 %46, label %48, label %4, !llvm.loop !11

48:                                               ; preds = %44, %2
  ret i32* %0

49:                                               ; preds = %27
  %50 = getelementptr inbounds i32, i32* %0, i64 %21
  store i32 %28, i32* %30, align 4, !tbaa !5
  store i32 %31, i32* %50, align 4, !tbaa !5
  br label %51

51:                                               ; preds = %49, %27
  %52 = phi i32 [ %31, %27 ], [ %28, %49 ]
  %53 = add i64 %20, -2
  %54 = icmp eq i64 %53, 0
  br i1 %54, label %33, label %17, !llvm.loop !15
}

; Function Attrs: nofree nounwind
declare noundef i32 @printf(i8* nocapture noundef readonly, ...) local_unnamed_addr #2

; Function Attrs: argmemonly mustprogress nofree nosync nounwind willreturn
declare void @llvm.lifetime.end.p0i8(i64 immarg, i8* nocapture) #1


!llvm.module.flags = !{!0, !1, !2, !3}
!llvm.ident = !{!4}

!0 = !{i32 1, !"wchar_size", i32 4}
!1 = !{i32 7, !"PIC Level", i32 2}
!2 = !{i32 7, !"PIE Level", i32 2}
!3 = !{i32 7, !"uwtable", i32 1}
!4 = !{!"clang version 13.0.0"}
!5 = !{!6, !6, i64 0}
!6 = !{!"int", !7, i64 0}
!7 = !{!"omnipotent char", !8, i64 0}
!8 = !{!"Simple C/C++ TBAA"}
!9 = distinct !{!9, !10}
!10 = !{!"llvm.loop.mustprogress"}
!11 = distinct !{!11, !10}
!12 = distinct !{!12, !10}
!13 = distinct !{!13, !10}
!14 = distinct !{!14, !10}
!15 = distinct !{!15, !10}
